; Function Attrs: mustprogress nounwind uwtable
define dso_local void @_ZN5clang15BackendConsumer10InitializeERNS_10ASTContextE(ptr noundef nonnull align 8 dereferenceable(392) %0, ptr noundef nonnull align 8 dereferenceable(23096) %1) unnamed_addr #0 align 2 {
  %3 = getelementptr inbounds nuw i8, ptr %0, i64 72
  store ptr %1, ptr %3, align 8
  %4 = getelementptr inbounds nuw i8, ptr %0, i64 269
  %5 = load i8, ptr %4, align 1
  %6 = trunc i8 %5 to i1
  br i1 %6, label %7, label %9

7:                                                ; preds = %2
  %8 = getelementptr inbounds nuw i8, ptr %0, i64 88
  tail call void @_ZN4llvm5Timer10startTimerEv(ptr noundef nonnull align 8 dereferenceable(176) %8) #23
  br label %9

9:                                                ; preds = %7, %2
  %10 = getelementptr inbounds nuw i8, ptr %0, i64 272
  %11 = load ptr, ptr %10, align 8
  %12 = load ptr, ptr %11, align 8
  %13 = getelementptr inbounds i8, ptr %12, i64 16
  %14 = load ptr, ptr %13, align 8
  tail call void %14(ptr noundef nonnull align 8 dereferenceable(9) %11, ptr noundef nonnull align 8 dereferenceable(23096) %1) #23
  %15 = load i8, ptr %4, align 1
  %16 = trunc i8 %15 to i1
  br i1 %16, label %17, label %19

17:                                               ; preds = %9
  %18 = getelementptr inbounds nuw i8, ptr %0, i64 88
  tail call void @_ZN4llvm5Timer9stopTimerEv(ptr noundef nonnull align 8 dereferenceable(176) %18) #23
  br label %19

19:                                               ; preds = %17, %9
  ret void
}